(lp0
(i__main__
Blob
p1
(dp2
S'rect'
p3
(F203.13671875
F101.87890625
F243.13671875
F141.87890625
tp4
sba(i__main__
Blob
p5
(dp6
g3
(F203.27734375
F141.80859375
F243.27734375
F181.80859375
tp7
sba(i__main__
Blob
p8
(dp9
g3
(F292.86328125
F65.15234375
F332.86328125
F105.15234375
tp10
sba(i__main__
Blob
p11
(dp12
g3
(F107.6875
F142.1171875
F147.6875
F182.1171875
tp13
sba(i__main__
Blob
p14
(dp15
g3
(F126.87109375
F55.34765625
F166.87109375
F95.34765625
tp16
sba(i__main__
Blob
p17
(dp18
g3
(F128.30078125
F160.046875
F168.30078125
F200.046875
tp19
sba(i__main__
Blob
p20
(dp21
g3
(F224.75390625
F123.28125
F264.75390625
F163.28125
tp22
sba(i__main__
Blob
p23
(dp24
g3
(F234.16796875
F186.0078125
F274.16796875
F226.0078125
tp25
sba(i__main__
Blob
p26
(dp27
g3
(F109.85546875
F254.4140625
F149.85546875
F294.4140625
tp28
sba(i__main__
Blob
p29
(dp30
g3
(F269.03125
F287.09765625
F309.03125
F327.09765625
tp31
sba.